# mark_description "Intel(R) C Intel(R) 64 Compiler for applications running on Intel(R) 64, Version 19.0.4.235 Build 20190416";
# mark_description "-O0 -S -fverbose-asm -o ../asm/drystone.icc.opt0.asm";
	.file "drystone.c"
	.text
..TXTST0:
.L_2__routine_start_main_0:
# -- Begin  main
	.text
# mark_begin;

	.globl main
# --- main(int, char **)
main:
# parameter 1: %edi
# parameter 2: %rsi
..B1.1:                         # Preds ..B1.0
                                # Execution count [0.00e+00]
	.cfi_startproc
..___tag_value_main.1:
..L2:
                                                          #132.1
        pushq     %rbp                                          #132.1
	.cfi_def_cfa_offset 16
        movq      %rsp, %rbp                                    #132.1
	.cfi_def_cfa 6, 16
	.cfi_offset 6, -16
        subq      $32, %rsp                                     #132.1
        movl      %edi, -24(%rbp)                               #132.1
        movq      %rsi, -16(%rbp)                               #132.1
        movl      $0, %eax                                      #135.7
..___tag_value_main.6:
        call      Proc0                                         #135.7
..___tag_value_main.7:
                                # LOE rbx rbp rsp r12 r13 r14 r15 rip eax
..B1.5:                         # Preds ..B1.1
                                # Execution count [0.00e+00]
        movl      %eax, -32(%rbp)                               #135.7
                                # LOE rbx rbp rsp r12 r13 r14 r15 rip
..B1.2:                         # Preds ..B1.5
                                # Execution count [0.00e+00]
        movl      $0, %eax                                      #136.1
        leave                                                   #136.1
	.cfi_restore 6
        ret                                                     #136.1
                                # LOE
	.cfi_endproc
# mark_end;
	.type	main,@function
	.size	main,.-main
..LNmain.0:
	.data
# -- End  main
	.text
.L_2__routine_start_Proc0_1:
# -- Begin  Proc0
	.section .rodata, "a"
	.align 4
	.align 4
.L_2__STRING.0:
	.long	1498564676
	.long	1313821779
	.long	1380982853
	.long	1095911247
	.long	1394617421
	.long	541412687
	.long	1230132307
	.word	18254
	.byte	0
	.type	.L_2__STRING.0,@object
	.size	.L_2__STRING.0,31
	.space 1, 0x00 	# pad
	.align 4
.L_2__STRING.1:
	.long	1498564676
	.long	1313821779
	.long	1380982853
	.long	1095911247
	.long	840969293
	.long	541347367
	.long	1230132307
	.word	18254
	.byte	0
	.type	.L_2__STRING.1,@object
	.size	.L_2__STRING.1,31
	.space 1, 0x00 	# pad
	.align 4
.L_2__STRING.2:
	.long	2037540932
	.long	1852798067
	.long	1769218149
	.long	1713399149
	.long	622883439
	.long	1881171052
	.long	1702064993
	.long	540876915
	.long	174353445
	.byte	0
	.type	.L_2__STRING.2,@object
	.size	.L_2__STRING.2,37
	.space 3, 0x00 	# pad
	.align 4
.L_2__STRING.3:
	.long	1936287828
	.long	1667329312
	.long	1701734760
	.long	1852138016
	.long	1634560099
	.long	544435058
	.long	622883937
	.long	1679844460
	.long	1937338984
	.long	1701736308
	.long	1702047603
	.long	1684959075
	.word	10
	.type	.L_2__STRING.3,@object
	.size	.L_2__STRING.3,50
	.text
# mark_begin;

	.globl Proc0
# --- Proc0()
Proc0:
..B2.1:                         # Preds ..B2.0
                                # Execution count [0.00e+00]
	.cfi_startproc
..___tag_value_Proc0.10:
..L11:
                                                         #151.1
        pushq     %rbp                                          #151.1
	.cfi_def_cfa_offset 16
        movq      %rsp, %rbp                                    #151.1
	.cfi_def_cfa 6, 16
	.cfi_offset 6, -16
        subq      $288, %rsp                                    #151.1
        movq      %rbx, -16(%rbp)                               #151.1[spill]
        lea       -152(%rbp), %rax                              #176.8
        movq      %rax, %rdi                                    #176.8
..___tag_value_Proc0.16:
#       times(struct tms *)
        call      times                                         #176.8
..___tag_value_Proc0.17:
	.cfi_offset 3, -32
                                # LOE rax rbp rsp r12 r13 r14 r15 rip
..B2.38:                        # Preds ..B2.1
                                # Execution count [0.00e+00]
        movq      %rax, -120(%rbp)                              #176.8
                                # LOE rbp rsp r12 r13 r14 r15 rip
..B2.2:                         # Preds ..B2.38
                                # Execution count [0.00e+00]
        movq      -152(%rbp), %rax                              #176.33
        movq      %rax, -112(%rbp)                              #176.21
        movl      $0, -224(%rbp)                                #177.13
                                # LOE rbp rsp r12 r13 r14 r15 rip
..B2.3:                         # Preds ..B2.4 ..B2.2
                                # Execution count [0.00e+00]
        movl      -224(%rbp), %eax                              #177.20
        cmpl      $500000000, %eax                              #177.24
        jae       ..B2.5        # Prob 50%                      #177.24
                                # LOE rbp rsp r12 r13 r14 r15 rip
..B2.4:                         # Preds ..B2.3
                                # Execution count [0.00e+00]
        movl      $1, %eax                                      #177.33
        addl      -224(%rbp), %eax                              #177.33
        movl      %eax, -224(%rbp)                              #177.33
        jmp       ..B2.3        # Prob 100%                     #177.33
                                # LOE rbp rsp r12 r13 r14 r15 rip
..B2.5:                         # Preds ..B2.3
                                # Execution count [0.00e+00]
        lea       -152(%rbp), %rax                              #178.8
        movq      %rax, %rdi                                    #178.8
..___tag_value_Proc0.19:
#       times(struct tms *)
        call      times                                         #178.8
..___tag_value_Proc0.20:
                                # LOE rax rbp rsp r12 r13 r14 r15 rip
..B2.39:                        # Preds ..B2.5
                                # Execution count [0.00e+00]
        movq      %rax, -104(%rbp)                              #178.8
                                # LOE rbp rsp r12 r13 r14 r15 rip
..B2.6:                         # Preds ..B2.39
                                # Execution count [0.00e+00]
        movq      -112(%rbp), %rax                              #179.35
        negq      %rax                                          #179.35
        addq      -152(%rbp), %rax                              #179.35
        movq      %rax, -96(%rbp)                               #179.8
        movl      $56, %eax                                     #182.33
        movq      %rax, %rdi                                    #182.33
..___tag_value_Proc0.21:
#       malloc(size_t)
        call      malloc                                        #182.33
..___tag_value_Proc0.22:
                                # LOE rax rbp rsp r12 r13 r14 r15 rip
..B2.40:                        # Preds ..B2.6
                                # Execution count [0.00e+00]
        movq      %rax, -88(%rbp)                               #182.33
                                # LOE rbp rsp r12 r13 r14 r15 rip
..B2.7:                         # Preds ..B2.40
                                # Execution count [0.00e+00]
        movq      -88(%rbp), %rax                               #182.33
        movq      %rax, PtrGlbNext(%rip)                        #182.8
        movl      $56, %eax                                     #183.29
        movq      %rax, %rdi                                    #183.29
..___tag_value_Proc0.23:
#       malloc(size_t)
        call      malloc                                        #183.29
..___tag_value_Proc0.24:
                                # LOE rax rbp rsp r12 r13 r14 r15 rip
..B2.41:                        # Preds ..B2.7
                                # Execution count [0.00e+00]
        movq      %rax, -80(%rbp)                               #183.29
                                # LOE rbp rsp r12 r13 r14 r15 rip
..B2.8:                         # Preds ..B2.41
                                # Execution count [0.00e+00]
        movq      -80(%rbp), %rax                               #183.29
        movq      %rax, PtrGlb(%rip)                            #183.8
        movq      PtrGlb(%rip), %rax                            #184.8
        movq      PtrGlbNext(%rip), %rdx                        #184.26
        movq      %rdx, (%rax)                                  #184.8
        movq      PtrGlb(%rip), %rax                            #185.8
        movl      $0, 8(%rax)                                   #185.8
        movq      PtrGlb(%rip), %rax                            #186.8
        movl      $2, 12(%rax)                                  #186.8
        movq      PtrGlb(%rip), %rax                            #187.8
        movl      $40, 16(%rax)                                 #187.8
        movq      PtrGlb(%rip), %rax                            #188.8
        lea       20(%rax), %rax                                #188.8
        movl      $.L_2__STRING.0, %edx                         #188.8
        movq      %rax, %rdi                                    #188.8
        movq      %rdx, %rsi                                    #188.8
        movl      $0, %eax                                      #188.8
..___tag_value_Proc0.25:
        call      strcpy                                        #188.8
..___tag_value_Proc0.26:
                                # LOE rbp rsp r12 r13 r14 r15 rip eax
..B2.42:                        # Preds ..B2.8
                                # Execution count [0.00e+00]
        movl      %eax, -220(%rbp)                              #188.8
                                # LOE rbp rsp r12 r13 r14 r15 rip
..B2.9:                         # Preds ..B2.42
                                # Execution count [0.00e+00]
        lea       -152(%rbp), %rax                              #197.8
        movq      %rax, %rdi                                    #197.8
..___tag_value_Proc0.27:
#       times(struct tms *)
        call      times                                         #197.8
..___tag_value_Proc0.28:
                                # LOE rax rbp rsp r12 r13 r14 r15 rip
..B2.43:                        # Preds ..B2.9
                                # Execution count [0.00e+00]
        movq      %rax, -72(%rbp)                               #197.8
                                # LOE rbp rsp r12 r13 r14 r15 rip
..B2.10:                        # Preds ..B2.43
                                # Execution count [0.00e+00]
        movq      -152(%rbp), %rax                              #197.33
        movq      %rax, -112(%rbp)                              #197.21
        movl      $0, -224(%rbp)                                #199.6
                                # LOE rbp rsp r12 r13 r14 r15 rip
..B2.11:                        # Preds ..B2.12 ..B2.10
                                # Execution count [0.00e+00]
        movl      -224(%rbp), %eax                              #199.13
        cmpl      $500000000, %eax                              #199.17
        jb        ..B2.13       # Prob 50%                      #199.17
        jmp       ..B2.32       # Prob 100%                     #199.17
                                # LOE rbp rsp r12 r13 r14 r15 rip
..B2.12:                        # Preds ..B2.53
                                # Execution count [0.00e+00]
        movl      $1, %eax                                      #199.26
        addl      -224(%rbp), %eax                              #199.26
        movl      %eax, -224(%rbp)                              #199.26
        jmp       ..B2.11       # Prob 100%                     #199.26
                                # LOE rbp rsp r12 r13 r14 r15 rip
..B2.13:                        # Preds ..B2.11
                                # Execution count [0.00e+00]
        movl      $0, %eax                                      #202.8
..___tag_value_Proc0.29:
        call      Proc5                                         #202.8
..___tag_value_Proc0.30:
                                # LOE rbp rsp r12 r13 r14 r15 rip eax
..B2.44:                        # Preds ..B2.13
                                # Execution count [0.00e+00]
        movl      %eax, -216(%rbp)                              #202.8
                                # LOE rbp rsp r12 r13 r14 r15 rip
..B2.14:                        # Preds ..B2.44
                                # Execution count [0.00e+00]
        movl      $0, %eax                                      #203.8
..___tag_value_Proc0.31:
        call      Proc4                                         #203.8
..___tag_value_Proc0.32:
                                # LOE rbp rsp r12 r13 r14 r15 rip eax
..B2.45:                        # Preds ..B2.14
                                # Execution count [0.00e+00]
        movl      %eax, -212(%rbp)                              #203.8
                                # LOE rbp rsp r12 r13 r14 r15 rip
..B2.15:                        # Preds ..B2.45
                                # Execution count [0.00e+00]
        movl      $2, -204(%rbp)                                #204.8
        movl      $3, -200(%rbp)                                #205.8
        lea       -288(%rbp), %rax                              #206.8
        movl      $.L_2__STRING.1, %edx                         #206.8
        movq      %rax, %rdi                                    #206.8
        movq      %rdx, %rsi                                    #206.8
        movl      $0, %eax                                      #206.8
..___tag_value_Proc0.33:
        call      strcpy                                        #206.8
..___tag_value_Proc0.34:
                                # LOE rbp rsp r12 r13 r14 r15 rip eax
..B2.46:                        # Preds ..B2.15
                                # Execution count [0.00e+00]
        movl      %eax, -196(%rbp)                              #206.8
                                # LOE rbp rsp r12 r13 r14 r15 rip
..B2.16:                        # Preds ..B2.46
                                # Execution count [0.00e+00]
        movl      $1, -188(%rbp)                                #207.8
        lea       -257(%rbp), %rax                              #208.21
        lea       -288(%rbp), %rdx                              #208.21
        movq      %rax, %rdi                                    #208.21
        movq      %rdx, %rsi                                    #208.21
        movl      $0, %eax                                      #208.21
..___tag_value_Proc0.35:
        call      Func2                                         #208.21
..___tag_value_Proc0.36:
                                # LOE rbp rsp r12 r13 r14 r15 rip eax
..B2.47:                        # Preds ..B2.16
                                # Execution count [0.00e+00]
        movl      %eax, -184(%rbp)                              #208.21
                                # LOE rbp rsp r12 r13 r14 r15 rip
..B2.17:                        # Preds ..B2.47
                                # Execution count [0.00e+00]
        movl      -184(%rbp), %eax                              #208.21
        testl     %eax, %eax                                    #208.21
        je        ..B2.19       # Prob 50%                      #208.21
                                # LOE rbp rsp r12 r13 r14 r15 rip
..B2.18:                        # Preds ..B2.17
                                # Execution count [0.00e+00]
        movl      $0, BoolGlob(%rip)                            #208.8
        jmp       ..B2.20       # Prob 100%                     #208.8
                                # LOE rbp rsp r12 r13 r14 r15 rip
..B2.19:                        # Preds ..B2.17
                                # Execution count [0.00e+00]
        movl      $1, BoolGlob(%rip)                            #208.8
                                # LOE rbp rsp r12 r13 r14 r15 rip
..B2.20:                        # Preds ..B2.19 ..B2.18 ..B2.22
                                # Execution count [0.00e+00]
        movl      -204(%rbp), %eax                              #209.15
        movl      -200(%rbp), %edx                              #209.25
        cmpl      %edx, %eax                                    #209.25
        jge       ..B2.23       # Prob 50%                      #209.25
                                # LOE rbp rsp r12 r13 r14 r15 rip
..B2.21:                        # Preds ..B2.20
                                # Execution count [0.00e+00]
        movl      -204(%rbp), %eax                              #211.30
        imull     $5, %eax, %eax                                #211.30
        movl      -200(%rbp), %edx                              #211.40
        negl      %edx                                          #211.40
        addl      %edx, %eax                                    #211.40
        movl      %eax, -180(%rbp)                              #211.16
        movl      -204(%rbp), %eax                              #212.16
        movl      -200(%rbp), %edx                              #212.16
        lea       -180(%rbp), %rcx                              #212.16
        movl      %eax, %edi                                    #212.16
        movl      %edx, %esi                                    #212.16
        movq      %rcx, %rdx                                    #212.16
        movl      $0, %eax                                      #212.16
..___tag_value_Proc0.37:
        call      Proc7                                         #212.16
..___tag_value_Proc0.38:
                                # LOE rbp rsp r12 r13 r14 r15 rip eax
..B2.48:                        # Preds ..B2.21
                                # Execution count [0.00e+00]
        movl      %eax, -176(%rbp)                              #212.16
                                # LOE rbp rsp r12 r13 r14 r15 rip
..B2.22:                        # Preds ..B2.48
                                # Execution count [0.00e+00]
        movl      $1, %eax                                      #213.18
        addl      -204(%rbp), %eax                              #213.18
        movl      %eax, -204(%rbp)                              #213.18
        jmp       ..B2.20       # Prob 100%                     #213.18
                                # LOE rbp rsp r12 r13 r14 r15 rip
..B2.23:                        # Preds ..B2.20
                                # Execution count [0.00e+00]
        movl      $Array1Glob, %eax                             #215.8
        movl      $Array2Glob, %edx                             #215.8
        movl      -204(%rbp), %ecx                              #215.8
        movl      -180(%rbp), %ebx                              #215.8
        movq      %rax, %rdi                                    #215.8
        movq      %rdx, %rsi                                    #215.8
        movl      %ecx, %edx                                    #215.8
        movl      %ebx, %ecx                                    #215.8
        movl      $0, %eax                                      #215.8
..___tag_value_Proc0.39:
        call      Proc8                                         #215.8
..___tag_value_Proc0.40:
                                # LOE rbp rsp r12 r13 r14 r15 rip eax
..B2.49:                        # Preds ..B2.23
                                # Execution count [0.00e+00]
        movl      %eax, -172(%rbp)                              #215.8
                                # LOE rbp rsp r12 r13 r14 r15 rip
..B2.24:                        # Preds ..B2.49
                                # Execution count [0.00e+00]
        movq      PtrGlb(%rip), %rax                            #216.8
        movq      %rax, %rdi                                    #216.8
        movl      $0, %eax                                      #216.8
..___tag_value_Proc0.41:
        call      Proc1                                         #216.8
..___tag_value_Proc0.42:
                                # LOE rbp rsp r12 r13 r14 r15 rip eax
..B2.50:                        # Preds ..B2.24
                                # Execution count [0.00e+00]
        movl      %eax, -168(%rbp)                              #216.8
                                # LOE rbp rsp r12 r13 r14 r15 rip
..B2.25:                        # Preds ..B2.50
                                # Execution count [0.00e+00]
        movb      $65, -226(%rbp)                               #217.13
                                # LOE rbp rsp r12 r13 r14 r15 rip
..B2.26:                        # Preds ..B2.27 ..B2.25
                                # Execution count [0.00e+00]
        movsbl    -226(%rbp), %eax                              #217.30
        movsbq    %al, %rax                                     #217.30
        movsbl    Char2Glob(%rip), %edx                         #217.43
        movsbq    %dl, %rdx                                     #217.43
        cmpl      %edx, %eax                                    #217.43
        jle       ..B2.28       # Prob 50%                      #217.43
        jmp       ..B2.31       # Prob 100%                     #217.43
                                # LOE rbp rsp r12 r13 r14 r15 rip
..B2.27:                        # Preds ..B2.52 ..B2.29
                                # Execution count [0.00e+00]
        movsbl    -226(%rbp), %eax                              #217.56
        movsbq    %al, %rax                                     #217.56
        incl      %eax                                          #217.56
        movb      %al, -226(%rbp)                               #217.56
        jmp       ..B2.26       # Prob 100%                     #217.56
                                # LOE rbp rsp r12 r13 r14 r15 rip
..B2.28:                        # Preds ..B2.26
                                # Execution count [0.00e+00]
        movsbl    -226(%rbp), %eax                              #218.31
        movsbq    %al, %rax                                     #218.31
        movl      $67, %edx                                     #218.31
        movl      %eax, %edi                                    #218.31
        movl      %edx, %esi                                    #218.31
        movl      $0, %eax                                      #218.31
..___tag_value_Proc0.43:
        call      Func1                                         #218.31
..___tag_value_Proc0.44:
                                # LOE rbp rsp r12 r13 r14 r15 rip eax
..B2.51:                        # Preds ..B2.28
                                # Execution count [0.00e+00]
        movl      %eax, -164(%rbp)                              #218.31
                                # LOE rbp rsp r12 r13 r14 r15 rip
..B2.29:                        # Preds ..B2.51
                                # Execution count [0.00e+00]
        movl      -188(%rbp), %eax                              #218.20
        movl      -164(%rbp), %edx                              #218.31
        cmpl      %edx, %eax                                    #218.31
        jne       ..B2.27       # Prob 50%                      #218.31
                                # LOE rbp rsp r12 r13 r14 r15 rip
..B2.30:                        # Preds ..B2.29
                                # Execution count [0.00e+00]
        movl      $0, %eax                                      #219.24
        lea       -188(%rbp), %rdx                              #219.24
        movq      %rax, %rdi                                    #219.24
        movq      %rdx, %rsi                                    #219.24
        movl      $0, %eax                                      #219.24
..___tag_value_Proc0.45:
        call      Proc6                                         #219.24
..___tag_value_Proc0.46:
                                # LOE rbp rsp r12 r13 r14 r15 rip eax
..B2.52:                        # Preds ..B2.30
                                # Execution count [0.00e+00]
        movl      %eax, -156(%rbp)                              #219.24
        jmp       ..B2.27       # Prob 100%                     #219.24
                                # LOE rbp rsp r12 r13 r14 r15 rip
..B2.31:                        # Preds ..B2.26
                                # Execution count [0.00e+00]
        movl      -204(%rbp), %eax                              #220.28
        imull     -200(%rbp), %eax                              #220.28
        movl      %eax, -180(%rbp)                              #220.8
        movl      -180(%rbp), %eax                              #221.18
        movl      -204(%rbp), %edx                              #221.28
        movl      %edx, -48(%rbp)                               #221.28[spill]
        cltd                                                    #221.28
        movl      -48(%rbp), %ecx                               #221.28[spill]
        idivl     %ecx                                          #221.28
        movl      %eax, -200(%rbp)                              #221.8
        movl      -200(%rbp), %eax                              #222.33
        negl      %eax                                          #222.33
        addl      -180(%rbp), %eax                              #222.33
        imull     $7, %eax, %eax                                #222.33
        movl      -204(%rbp), %edx                              #222.44
        negl      %edx                                          #222.44
        addl      %edx, %eax                                    #222.44
        movl      %eax, -200(%rbp)                              #222.8
        lea       -204(%rbp), %rax                              #223.8
        movq      %rax, %rdi                                    #223.8
        movl      $0, %eax                                      #223.8
..___tag_value_Proc0.49:
        call      Proc2                                         #223.8
..___tag_value_Proc0.50:
                                # LOE rbp rsp r12 r13 r14 r15 rip eax
..B2.53:                        # Preds ..B2.31
                                # Execution count [0.00e+00]
        movl      %eax, -160(%rbp)                              #223.8
        jmp       ..B2.12       # Prob 100%                     #223.8
                                # LOE rbp rsp r12 r13 r14 r15 rip
..B2.32:                        # Preds ..B2.11
                                # Execution count [0.00e+00]
        lea       -152(%rbp), %rax                              #236.8
        movq      %rax, %rdi                                    #236.8
..___tag_value_Proc0.51:
#       times(struct tms *)
        call      times                                         #236.8
..___tag_value_Proc0.52:
                                # LOE rax rbp rsp r12 r13 r14 r15 rip
..B2.54:                        # Preds ..B2.32
                                # Execution count [0.00e+00]
        movq      %rax, -64(%rbp)                               #236.8
                                # LOE rbp rsp r12 r13 r14 r15 rip
..B2.33:                        # Preds ..B2.54
                                # Execution count [0.00e+00]
        movq      -112(%rbp), %rax                              #237.36
        negq      %rax                                          #237.36
        addq      -152(%rbp), %rax                              #237.36
        movq      -96(%rbp), %rdx                               #237.48
        negq      %rdx                                          #237.48
        addq      %rdx, %rax                                    #237.48
        movq      %rax, -56(%rbp)                               #237.8
        movl      $.L_2__STRING.2, %eax                         #238.1
        movl      $500000000, %edx                              #238.1
        movq      -56(%rbp), %rcx                               #238.1
        movq      $0x8888888888888889, %rbx                     #238.1
        movq      %rax, -40(%rbp)                               #238.1[spill]
        movq      %rbx, %rax                                    #238.1
        movq      %rdx, -32(%rbp)                               #238.1[spill]
        imulq     %rcx                                          #238.1
        addq      -56(%rbp), %rdx                               #238.1
        sarq      $5, %rdx                                      #238.1
        movq      -56(%rbp), %rax                               #238.1
        sarq      $63, %rax                                     #238.1
        subq      %rax, %rdx                                    #238.1
        movq      -40(%rbp), %rax                               #238.1[spill]
        movq      %rax, %rdi                                    #238.1
        movq      -32(%rbp), %rax                               #238.1[spill]
        movq      %rax, %rsi                                    #238.1
        movl      $0, %eax                                      #238.1
..___tag_value_Proc0.57:
#       printf(const char *__restrict__, ...)
        call      printf                                        #238.1
..___tag_value_Proc0.58:
                                # LOE rbp rsp r12 r13 r14 r15 rip eax
..B2.55:                        # Preds ..B2.33
                                # Execution count [0.00e+00]
        movl      %eax, -208(%rbp)                              #238.1
                                # LOE rbp rsp r12 r13 r14 r15 rip
..B2.34:                        # Preds ..B2.55
                                # Execution count [0.00e+00]
        movl      $.L_2__STRING.3, %eax                         #239.1
        movq      $0x6fc23ac00, %rdx                            #239.1
        movq      -56(%rbp), %rcx                               #239.1
        movq      %rax, -24(%rbp)                               #239.1[spill]
        movq      %rdx, %rax                                    #239.1
        cqto                                                    #239.1
        idivq     %rcx                                          #239.1
        movq      -24(%rbp), %rdx                               #239.1[spill]
        movq      %rdx, %rdi                                    #239.1
        movq      %rax, %rsi                                    #239.1
        movl      $0, %eax                                      #239.1
..___tag_value_Proc0.61:
#       printf(const char *__restrict__, ...)
        call      printf                                        #239.1
..___tag_value_Proc0.62:
                                # LOE rbp rsp r12 r13 r14 r15 rip eax
..B2.56:                        # Preds ..B2.34
                                # Execution count [0.00e+00]
        movl      %eax, -192(%rbp)                              #239.1
                                # LOE rbp rsp r12 r13 r14 r15 rip
..B2.35:                        # Preds ..B2.56
                                # Execution count [0.00e+00]
        movq      -16(%rbp), %rbx                               #243.1[spill]
	.cfi_restore 3
        leave                                                   #243.1
	.cfi_restore 6
        ret                                                     #243.1
                                # LOE
	.cfi_endproc
# mark_end;
	.type	Proc0,@function
	.size	Proc0,.-Proc0
..LNProc0.1:
	.data
# -- End  Proc0
	.text
.L_2__routine_start_Proc1_2:
# -- Begin  Proc1
	.text
# mark_begin;

	.globl Proc1
# --- Proc1()
Proc1:
# parameter 1: %rdi
..B3.1:                         # Preds ..B3.0
                                # Execution count [0.00e+00]
	.cfi_startproc
..___tag_value_Proc1.66:
..L67:
                                                         #247.1
        pushq     %rbp                                          #247.1
	.cfi_def_cfa_offset 16
        movq      %rsp, %rbp                                    #247.1
	.cfi_def_cfa 6, 16
	.cfi_offset 6, -16
        subq      $96, %rsp                                     #247.1
        movq      %rdi, -80(%rbp)                               #247.1
        movq      -80(%rbp), %rax                               #250.8
        movq      (%rax), %rax                                  #250.8
        movq      %rax, -72(%rbp)                               #250.8
        movq      PtrGlb(%rip), %rax                            #250.8
        movq      %rax, -64(%rbp)                               #250.8
        movq      -72(%rbp), %rax                               #250.8
        movq      %rax, -56(%rbp)                               #250.8
        movq      -64(%rbp), %rax                               #250.8
        movq      %rax, -48(%rbp)                               #250.8
        movq      -48(%rbp), %rax                               #250.8
        movq      -56(%rbp), %rdx                               #250.8
        movq      %rdx, %rdi                                    #250.8
        movq      %rax, %rsi                                    #250.8
        movl      $56, %ecx                                     #250.8
        movl      %ecx, %eax                                    #250.8
        shrq      $2, %rcx                                      #250.8
        rep                                                     #250.8
        movsl                                                   #250.8
        movl      %eax, %ecx                                    #250.8
        andl      $3, %ecx                                      #250.8
        rep                                                     #250.8
        movsb                                                   #250.8
                                # LOE rbx rbp rsp r12 r13 r14 r15 rip
..B3.10:                        # Preds ..B3.1
                                # Execution count [0.00e+00]
        movq      -80(%rbp), %rax                               #251.8
        movl      $5, 16(%rax)                                  #251.8
        movq      -80(%rbp), %rax                               #252.29
        movq      -80(%rbp), %rdx                               #252.8
        movq      (%rdx), %rdx                                  #252.8
        movl      16(%rax), %eax                                #252.29
        movl      %eax, 16(%rdx)                                #252.8
        movq      -80(%rbp), %rax                               #253.29
        movq      -80(%rbp), %rdx                               #253.8
        movq      (%rdx), %rdx                                  #253.8
        movq      (%rax), %rax                                  #253.29
        movq      %rax, (%rdx)                                  #253.8
        movq      -80(%rbp), %rax                               #254.8
        movq      (%rax), %rax                                  #254.8
        movq      (%rax), %rax                                  #254.8
        movq      %rax, %rdi                                    #254.8
        movl      $0, %eax                                      #254.8
..___tag_value_Proc1.71:
        call      Proc3                                         #254.8
..___tag_value_Proc1.72:
                                # LOE rbx rbp rsp r12 r13 r14 r15 rip eax
..B3.9:                         # Preds ..B3.10
                                # Execution count [0.00e+00]
        movl      %eax, -96(%rbp)                               #254.8
                                # LOE rbx rbp rsp r12 r13 r14 r15 rip
..B3.2:                         # Preds ..B3.9
                                # Execution count [0.00e+00]
        movq      -80(%rbp), %rax                               #255.12
        movq      (%rax), %rax                                  #255.12
        movl      8(%rax), %eax                                 #255.12
        testl     %eax, %eax                                    #255.32
        jne       ..B3.5        # Prob 50%                      #255.32
                                # LOE rbx rbp rsp r12 r13 r14 r15 rip
..B3.3:                         # Preds ..B3.2
                                # Execution count [0.00e+00]
        movq      -80(%rbp), %rax                               #257.16
        movq      (%rax), %rax                                  #257.16
        movl      $6, 16(%rax)                                  #257.16
        movq      -80(%rbp), %rax                               #258.16
        movl      12(%rax), %eax                                #258.16
        movq      -80(%rbp), %rdx                               #258.16
        movq      (%rdx), %rdx                                  #258.16
        lea       12(%rdx), %rdx                                #258.16
        movl      %eax, %edi                                    #258.16
        movq      %rdx, %rsi                                    #258.16
        movl      $0, %eax                                      #258.16
..___tag_value_Proc1.73:
        call      Proc6                                         #258.16
..___tag_value_Proc1.74:
                                # LOE rbx rbp rsp r12 r13 r14 r15 rip eax
..B3.11:                        # Preds ..B3.3
                                # Execution count [0.00e+00]
        movl      %eax, -92(%rbp)                               #258.16
                                # LOE rbx rbp rsp r12 r13 r14 r15 rip
..B3.4:                         # Preds ..B3.11
                                # Execution count [0.00e+00]
        movq      PtrGlb(%rip), %rax                            #259.37
        movq      -80(%rbp), %rdx                               #259.16
        movq      (%rdx), %rdx                                  #259.16
        movq      (%rax), %rax                                  #259.37
        movq      %rax, (%rdx)                                  #259.16
        movq      -80(%rbp), %rax                               #260.16
        movq      (%rax), %rax                                  #260.16
        movl      16(%rax), %eax                                #260.16
        movl      $10, %edx                                     #260.16
        movq      -80(%rbp), %rcx                               #260.16
        movq      (%rcx), %rcx                                  #260.16
        lea       16(%rcx), %rcx                                #260.16
        movl      %eax, %edi                                    #260.16
        movl      %edx, %esi                                    #260.16
        movq      %rcx, %rdx                                    #260.16
        movl      $0, %eax                                      #260.16
..___tag_value_Proc1.75:
        call      Proc7                                         #260.16
..___tag_value_Proc1.76:
                                # LOE rbx rbp rsp r12 r13 r14 r15 rip eax
..B3.12:                        # Preds ..B3.4
                                # Execution count [0.00e+00]
        movl      %eax, -88(%rbp)                               #260.16
        jmp       ..B3.6        # Prob 100%                     #260.16
                                # LOE rbx rbp rsp r12 r13 r14 r15 rip
..B3.5:                         # Preds ..B3.2
                                # Execution count [0.00e+00]
        movq      -80(%rbp), %rax                               #263.16
        movq      %rax, -40(%rbp)                               #263.16
        movq      -80(%rbp), %rax                               #263.16
        movq      (%rax), %rax                                  #263.16
        movq      %rax, -32(%rbp)                               #263.16
        movq      -40(%rbp), %rax                               #263.16
        movq      %rax, -24(%rbp)                               #263.16
        movq      -32(%rbp), %rax                               #263.16
        movq      %rax, -16(%rbp)                               #263.16
        movq      -16(%rbp), %rax                               #263.16
        movq      -24(%rbp), %rdx                               #263.16
        movq      %rdx, %rdi                                    #263.16
        movq      %rax, %rsi                                    #263.16
        movl      $56, %ecx                                     #263.16
        movl      %ecx, %eax                                    #263.16
        shrq      $2, %rcx                                      #263.16
        rep                                                     #263.16
        movsl                                                   #263.16
        movl      %eax, %ecx                                    #263.16
        andl      $3, %ecx                                      #263.16
        rep                                                     #263.16
        movsb                                                   #263.16
                                # LOE rbx rbp rsp r12 r13 r14 r15 rip
..B3.6:                         # Preds ..B3.12 ..B3.5
                                # Execution count [0.00e+00]
        leave                                                   #266.1
	.cfi_restore 6
        ret                                                     #266.1
                                # LOE
	.cfi_endproc
# mark_end;
	.type	Proc1,@function
	.size	Proc1,.-Proc1
..LNProc1.2:
	.data
# -- End  Proc1
	.text
.L_2__routine_start_Proc2_3:
# -- Begin  Proc2
	.text
# mark_begin;

	.globl Proc2
# --- Proc2()
Proc2:
# parameter 1: %rdi
..B4.1:                         # Preds ..B4.0
                                # Execution count [0.00e+00]
	.cfi_startproc
..___tag_value_Proc2.79:
..L80:
                                                         #270.1
        pushq     %rbp                                          #270.1
	.cfi_def_cfa_offset 16
        movq      %rsp, %rbp                                    #270.1
	.cfi_def_cfa 6, 16
	.cfi_offset 6, -16
        subq      $16, %rsp                                     #270.1
        movq      %rdi, -8(%rbp)                                #270.1
        movq      -8(%rbp), %rax                                #274.18
        movl      $10, %edx                                     #274.8
        addl      (%rax), %edx                                  #274.29
        movl      %edx, -16(%rbp)                               #274.8
                                # LOE rbx rbp rsp r12 r13 r14 r15 rip
..B4.2:                         # Preds ..B4.5 ..B4.1
                                # Execution count [0.00e+00]
        movl      $0, %eax                                      #275.8
        cmpl      $1, %eax                                      #275.8
        je        ..B4.6        # Prob 100%                     #275.8
                                # LOE rbx rbp rsp r12 r13 r14 r15 rip
..B4.3:                         # Preds ..B4.2
                                # Execution count [0.00e+00]
        movsbl    Char1Glob(%rip), %eax                         #277.20
        movsbq    %al, %rax                                     #277.20
        cmpl      $65, %eax                                     #277.33
        jne       ..B4.5        # Prob 50%                      #277.33
                                # LOE rbx rbp rsp r12 r13 r14 r15 rip
..B4.4:                         # Preds ..B4.3
                                # Execution count [0.00e+00]
        movl      $-1, %eax                                     #279.26
        addl      -16(%rbp), %eax                               #279.26
        movl      %eax, -16(%rbp)                               #279.26
        movl      IntGlob(%rip), %eax                           #280.45
        negl      %eax                                          #280.45
        addl      -16(%rbp), %eax                               #280.45
        movq      -8(%rbp), %rdx                                #280.25
        movl      %eax, (%rdx)                                  #280.25
        movl      $0, -12(%rbp)                                 #281.24
                                # LOE rbx rbp rsp r12 r13 r14 r15 rip
..B4.5:                         # Preds ..B4.4 ..B4.3
                                # Execution count [0.00e+00]
        movl      -12(%rbp), %eax                               #283.20
        testl     %eax, %eax                                    #283.31
        jne       ..B4.2        # Prob 50%                      #283.31
                                # LOE rbx rbp rsp r12 r13 r14 r15 rip
..B4.6:                         # Preds ..B4.5 ..B4.2
                                # Execution count [0.00e+00]
        leave                                                   #286.1
	.cfi_restore 6
        ret                                                     #286.1
                                # LOE
	.cfi_endproc
# mark_end;
	.type	Proc2,@function
	.size	Proc2,.-Proc2
..LNProc2.3:
	.data
# -- End  Proc2
	.text
.L_2__routine_start_Proc3_4:
# -- Begin  Proc3
	.text
# mark_begin;

	.globl Proc3
# --- Proc3()
Proc3:
# parameter 1: %rdi
..B5.1:                         # Preds ..B5.0
                                # Execution count [0.00e+00]
	.cfi_startproc
..___tag_value_Proc3.86:
..L87:
                                                         #290.1
        pushq     %rbp                                          #290.1
	.cfi_def_cfa_offset 16
        movq      %rsp, %rbp                                    #290.1
	.cfi_def_cfa 6, 16
	.cfi_offset 6, -16
        subq      $16, %rsp                                     #290.1
        movq      %rdi, -8(%rbp)                                #290.1
        movq      PtrGlb(%rip), %rax                            #291.12
        testq     %rax, %rax                                    #291.22
        je        ..B5.3        # Prob 50%                      #291.22
                                # LOE rbx rbp rsp r12 r13 r14 r15 rip
..B5.2:                         # Preds ..B5.1
                                # Execution count [0.00e+00]
        movq      PtrGlb(%rip), %rax                            #292.29
        movq      -8(%rbp), %rdx                                #292.17
        movq      (%rax), %rax                                  #292.29
        movq      %rax, (%rdx)                                  #292.17
        jmp       ..B5.4        # Prob 100%                     #292.17
                                # LOE rbx rbp rsp r12 r13 r14 r15 rip
..B5.3:                         # Preds ..B5.1
                                # Execution count [0.00e+00]
        movl      $100, IntGlob(%rip)                           #294.16
                                # LOE rbx rbp rsp r12 r13 r14 r15 rip
..B5.4:                         # Preds ..B5.2 ..B5.3
                                # Execution count [0.00e+00]
        movl      $10, %eax                                     #295.8
        movl      IntGlob(%rip), %edx                           #295.8
        movq      PtrGlb(%rip), %rcx                            #295.8
        lea       16(%rcx), %rcx                                #295.8
        movl      %eax, %edi                                    #295.8
        movl      %edx, %esi                                    #295.8
        movq      %rcx, %rdx                                    #295.8
        movl      $0, %eax                                      #295.8
..___tag_value_Proc3.91:
        call      Proc7                                         #295.8
..___tag_value_Proc3.92:
                                # LOE rbx rbp rsp r12 r13 r14 r15 rip eax
..B5.8:                         # Preds ..B5.4
                                # Execution count [0.00e+00]
        movl      %eax, -16(%rbp)                               #295.8
                                # LOE rbx rbp rsp r12 r13 r14 r15 rip
..B5.5:                         # Preds ..B5.8
                                # Execution count [0.00e+00]
        leave                                                   #296.1
	.cfi_restore 6
        ret                                                     #296.1
                                # LOE
	.cfi_endproc
# mark_end;
	.type	Proc3,@function
	.size	Proc3,.-Proc3
..LNProc3.4:
	.data
# -- End  Proc3
	.text
.L_2__routine_start_Proc4_5:
# -- Begin  Proc4
	.text
# mark_begin;

	.globl Proc4
# --- Proc4()
Proc4:
..B6.1:                         # Preds ..B6.0
                                # Execution count [0.00e+00]
	.cfi_startproc
..___tag_value_Proc4.95:
..L96:
                                                         #299.1
        pushq     %rbp                                          #299.1
	.cfi_def_cfa_offset 16
        movq      %rsp, %rbp                                    #299.1
	.cfi_def_cfa 6, 16
	.cfi_offset 6, -16
        subq      $16, %rsp                                     #299.1
        movsbl    Char1Glob(%rip), %eax                         #302.18
        movsbq    %al, %rax                                     #302.18
        cmpl      $65, %eax                                     #302.31
        je        ..B6.3        # Prob 50%                      #302.31
                                # LOE rbx rbp rsp r12 r13 r14 r15 rip
..B6.2:                         # Preds ..B6.1
                                # Execution count [0.00e+00]
        movl      $0, -16(%rbp)                                 #302.8
        jmp       ..B6.4        # Prob 100%                     #302.8
                                # LOE rbx rbp rsp r12 r13 r14 r15 rip
..B6.3:                         # Preds ..B6.1
                                # Execution count [0.00e+00]
        movl      $1, -16(%rbp)                                 #302.8
                                # LOE rbx rbp rsp r12 r13 r14 r15 rip
..B6.4:                         # Preds ..B6.3 ..B6.2
                                # Execution count [0.00e+00]
        movl      BoolGlob(%rip), %eax                          #303.19
        orl       -16(%rbp), %eax                               #303.8
        movl      %eax, -16(%rbp)                               #303.8
        movb      $66, Char2Glob(%rip)                          #304.8
        leave                                                   #305.1
	.cfi_restore 6
        ret                                                     #305.1
                                # LOE
	.cfi_endproc
# mark_end;
	.type	Proc4,@function
	.size	Proc4,.-Proc4
..LNProc4.5:
	.data
# -- End  Proc4
	.text
.L_2__routine_start_Proc5_6:
# -- Begin  Proc5
	.text
# mark_begin;

	.globl Proc5
# --- Proc5()
Proc5:
..B7.1:                         # Preds ..B7.0
                                # Execution count [0.00e+00]
	.cfi_startproc
..___tag_value_Proc5.102:
..L103:
                                                        #308.1
        pushq     %rbp                                          #308.1
	.cfi_def_cfa_offset 16
        movq      %rsp, %rbp                                    #308.1
	.cfi_def_cfa 6, 16
	.cfi_offset 6, -16
        movb      $65, Char1Glob(%rip)                          #309.8
        movl      $0, BoolGlob(%rip)                            #310.8
        leave                                                   #311.1
	.cfi_restore 6
        ret                                                     #311.1
                                # LOE
	.cfi_endproc
# mark_end;
	.type	Proc5,@function
	.size	Proc5,.-Proc5
..LNProc5.6:
	.data
# -- End  Proc5
	.text
.L_2__routine_start_Proc6_7:
# -- Begin  Proc6
	.text
# mark_begin;

	.globl Proc6
# --- Proc6()
Proc6:
# parameter 1: %edi
# parameter 2: %rsi
..B8.1:                         # Preds ..B8.0
                                # Execution count [0.00e+00]
	.cfi_startproc
..___tag_value_Proc6.109:
..L110:
                                                        #318.1
        pushq     %rbp                                          #318.1
	.cfi_def_cfa_offset 16
        movq      %rsp, %rbp                                    #318.1
	.cfi_def_cfa 6, 16
	.cfi_offset 6, -16
        subq      $32, %rsp                                     #318.1
        movl      %edi, -16(%rbp)                               #318.1
        movq      %rsi, -8(%rbp)                                #318.1
        movq      -8(%rbp), %rax                                #319.9
        movl      -16(%rbp), %edx                               #319.22
        movl      %edx, (%rax)                                  #319.9
        movl      -16(%rbp), %eax                               #320.14
        movl      %eax, %edi                                    #320.14
        movl      $0, %eax                                      #320.14
..___tag_value_Proc6.114:
        call      Func3                                         #320.14
..___tag_value_Proc6.115:
                                # LOE rbx rbp rsp r12 r13 r14 r15 rip eax
..B8.20:                        # Preds ..B8.1
                                # Execution count [0.00e+00]
        movl      %eax, -32(%rbp)                               #320.14
                                # LOE rbx rbp rsp r12 r13 r14 r15 rip
..B8.2:                         # Preds ..B8.20
                                # Execution count [0.00e+00]
        movl      -32(%rbp), %eax                               #320.14
        testl     %eax, %eax                                    #320.14
        jne       ..B8.4        # Prob 50%                      #320.14
                                # LOE rbx rbp rsp r12 r13 r14 r15 rip
..B8.3:                         # Preds ..B8.2
                                # Execution count [0.00e+00]
        movq      -8(%rbp), %rax                                #321.17
        movl      $3, (%rax)                                    #321.17
                                # LOE rbx rbp rsp r12 r13 r14 r15 rip
..B8.4:                         # Preds ..B8.3 ..B8.2
                                # Execution count [0.00e+00]
        movl      -16(%rbp), %eax                               #322.16
        movl      %eax, -28(%rbp)                               #322.16
        movl      -28(%rbp), %eax                               #322.16
        movl      %eax, -24(%rbp)                               #322.8
        movl      -24(%rbp), %eax                               #322.8
        cmpl      $4, %eax                                      #322.8
        ja        ..B8.17       # Prob 50%                      #322.8
                                # LOE rbx rbp rsp r12 r13 r14 r15 rip
..B8.5:                         # Preds ..B8.4
                                # Execution count [0.00e+00]
        movl      -24(%rbp), %eax                               #322.8
        movl      %eax, -20(%rbp)                               #322.8
        movl      -20(%rbp), %eax                               #322.8
        jmp       *.2.8_2.switchtab.2(,%rax,8)                  #322.8
                                # LOE rbx rbp rsp r12 r13 r14 r15 rip
..1.8_0.TAG.0:
..B8.6:                         # Preds ..B8.5
                                # Execution count [0.00e+00]
..B8.7:                         # Preds ..B8.6
                                # Execution count [0.00e+00]
        movq      -8(%rbp), %rax                                #324.25
        movl      $0, (%rax)                                    #324.25
        jmp       ..B8.17       # Prob 100%                     #324.25
                                # LOE rbx rbp rsp r12 r13 r14 r15 rip
..1.8_0.TAG.1:
..B8.8:                         # Preds ..B8.5
                                # Execution count [0.00e+00]
..B8.9:                         # Preds ..B8.8
                                # Execution count [0.00e+00]
        movl      IntGlob(%rip), %eax                           #325.28
        cmpl      $100, %eax                                    #325.38
        jle       ..B8.11       # Prob 50%                      #325.38
                                # LOE rbx rbp rsp r12 r13 r14 r15 rip
..B8.10:                        # Preds ..B8.9
                                # Execution count [0.00e+00]
        movq      -8(%rbp), %rax                                #325.44
        movl      $0, (%rax)                                    #325.44
        jmp       ..B8.17       # Prob 100%                     #325.44
                                # LOE rbx rbp rsp r12 r13 r14 r15 rip
..B8.11:                        # Preds ..B8.9
                                # Execution count [0.00e+00]
        movq      -8(%rbp), %rax                                #326.30
        movl      $3, (%rax)                                    #326.30
        jmp       ..B8.17       # Prob 100%                     #326.30
                                # LOE rbx rbp rsp r12 r13 r14 r15 rip
..1.8_0.TAG.2:
..B8.12:                        # Preds ..B8.5
                                # Execution count [0.00e+00]
..B8.13:                        # Preds ..B8.12
                                # Execution count [0.00e+00]
        movq      -8(%rbp), %rax                                #328.25
        movl      $1, (%rax)                                    #328.25
        jmp       ..B8.17       # Prob 100%                     #328.25
                                # LOE rbx rbp rsp r12 r13 r14 r15 rip
..1.8_0.TAG.4:
..B8.14:                        # Preds ..B8.5
                                # Execution count [0.00e+00]
..B8.15:                        # Preds ..B8.14
                                # Execution count [0.00e+00]
        movq      -8(%rbp), %rax                                #330.25
        movl      $2, (%rax)                                    #330.25
                                # LOE rbx rbp rsp r12 r13 r14 r15 rip
..1.8_0.TAG.3:
..B8.16:                        # Preds ..B8.5
                                # Execution count [0.00e+00]
..B8.17:                        # Preds ..B8.4 ..B8.15 ..B8.10 ..B8.11 ..B8.16
                                #       ..B8.13 ..B8.7
                                # Execution count [0.00e+00]
        leave                                                   #332.1
	.cfi_restore 6
        ret                                                     #332.1
                                # LOE
	.cfi_endproc
# mark_end;
	.type	Proc6,@function
	.size	Proc6,.-Proc6
..LNProc6.7:
	.section .rodata, "a"
	.space 6, 0x00 	# pad
	.align 8
.2.8_2.switchtab.2:
	.quad	..1.8_0.TAG.0
	.quad	..1.8_0.TAG.1
	.quad	..1.8_0.TAG.2
	.quad	..1.8_0.TAG.3
	.quad	..1.8_0.TAG.4
	.data
# -- End  Proc6
	.text
.L_2__routine_start_Proc7_8:
# -- Begin  Proc7
	.text
# mark_begin;

	.globl Proc7
# --- Proc7()
Proc7:
# parameter 1: %edi
# parameter 2: %esi
# parameter 3: %rdx
..B9.1:                         # Preds ..B9.0
                                # Execution count [0.00e+00]
	.cfi_startproc
..___tag_value_Proc7.118:
..L119:
                                                        #338.1
        pushq     %rbp                                          #338.1
	.cfi_def_cfa_offset 16
        movq      %rsp, %rbp                                    #338.1
	.cfi_def_cfa 6, 16
	.cfi_offset 6, -16
        subq      $32, %rsp                                     #338.1
        movl      %edi, -24(%rbp)                               #338.1
        movl      %esi, -16(%rbp)                               #338.1
        movq      %rdx, -8(%rbp)                                #338.1
        movl      $2, %eax                                      #341.8
        addl      -24(%rbp), %eax                               #341.28
        movl      %eax, -32(%rbp)                               #341.8
        movl      -32(%rbp), %eax                               #342.32
        addl      -16(%rbp), %eax                               #342.32
        movq      -8(%rbp), %rdx                                #342.9
        movl      %eax, (%rdx)                                  #342.9
        leave                                                   #343.1
	.cfi_restore 6
        ret                                                     #343.1
                                # LOE
	.cfi_endproc
# mark_end;
	.type	Proc7,@function
	.size	Proc7,.-Proc7
..LNProc7.8:
	.data
# -- End  Proc7
	.text
.L_2__routine_start_Proc8_9:
# -- Begin  Proc8
	.text
# mark_begin;

	.globl Proc8
# --- Proc8()
Proc8:
# parameter 1: %rdi
# parameter 2: %rsi
# parameter 3: %edx
# parameter 4: %ecx
..B10.1:                        # Preds ..B10.0
                                # Execution count [0.00e+00]
	.cfi_startproc
..___tag_value_Proc8.125:
..L126:
                                                        #350.1
        pushq     %rbp                                          #350.1
	.cfi_def_cfa_offset 16
        movq      %rsp, %rbp                                    #350.1
	.cfi_def_cfa 6, 16
	.cfi_offset 6, -16
        subq      $48, %rsp                                     #350.1
        movq      %rdi, -40(%rbp)                               #350.1
        movq      %rsi, -32(%rbp)                               #350.1
        movl      %edx, -24(%rbp)                               #350.1
        movl      %ecx, -16(%rbp)                               #350.1
        movl      $5, %eax                                      #354.8
        addl      -24(%rbp), %eax                               #354.28
        movl      %eax, -48(%rbp)                               #354.8
        movl      -48(%rbp), %eax                               #355.18
        movslq    %eax, %rax                                    #355.8
        imulq     $4, %rax, %rax                                #355.8
        addq      -40(%rbp), %rax                               #355.8
        movl      -16(%rbp), %edx                               #355.28
        movl      %edx, (%rax)                                  #355.8
        movl      -48(%rbp), %eax                               #356.40
        movslq    %eax, %rax                                    #356.30
        imulq     $4, %rax, %rax                                #356.30
        addq      -40(%rbp), %rax                               #356.30
        movl      $1, %edx                                      #356.8
        addl      -48(%rbp), %edx                               #356.25
        movslq    %edx, %rdx                                    #356.8
        imulq     $4, %rdx, %rdx                                #356.8
        addq      -40(%rbp), %rdx                               #356.8
        movl      (%rax), %eax                                  #356.30
        movl      %eax, (%rdx)                                  #356.8
        movl      $30, %eax                                     #357.8
        addl      -48(%rbp), %eax                               #357.25
        movslq    %eax, %rax                                    #357.8
        imulq     $4, %rax, %rax                                #357.8
        addq      -40(%rbp), %rax                               #357.8
        movl      -48(%rbp), %edx                               #357.31
        movl      %edx, (%rax)                                  #357.8
        movl      -48(%rbp), %eax                               #358.24
        movl      %eax, -44(%rbp)                               #358.13
                                # LOE rbx rbp rsp r12 r13 r14 r15 rip
..B10.2:                        # Preds ..B10.3 ..B10.1
                                # Execution count [0.00e+00]
        movl      -44(%rbp), %eax                               #358.32
        movl      $1, %edx                                      #358.8
        addl      -48(%rbp), %edx                               #358.52
        cmpl      %edx, %eax                                    #358.52
        jg        ..B10.4       # Prob 50%                      #358.52
                                # LOE rbx rbp rsp r12 r13 r14 r15 rip
..B10.3:                        # Preds ..B10.2
                                # Execution count [0.00e+00]
        movl      -48(%rbp), %eax                               #359.26
        movslq    %eax, %rax                                    #359.16
        imulq     $204, %rax, %rax                              #359.16
        addq      -32(%rbp), %rax                               #359.16
        movl      -44(%rbp), %edx                               #359.34
        movslq    %edx, %rdx                                    #359.16
        imulq     $4, %rdx, %rdx                                #359.16
        addq      %rdx, %rax                                    #359.16
        movl      -48(%rbp), %edx                               #359.46
        movl      %edx, (%rax)                                  #359.16
        movl      $1, %eax                                      #358.58
        addl      -44(%rbp), %eax                               #358.58
        movl      %eax, -44(%rbp)                               #358.58
        jmp       ..B10.2       # Prob 100%                     #358.58
                                # LOE rbx rbp rsp r12 r13 r14 r15 rip
..B10.4:                        # Preds ..B10.2
                                # Execution count [0.00e+00]
        movl      -48(%rbp), %eax                               #360.20
        movslq    %eax, %rax                                    #360.10
        imulq     $204, %rax, %rax                              #360.10
        addq      -32(%rbp), %rax                               #360.10
        movl      $-1, %edx                                     #360.10
        addl      -48(%rbp), %edx                               #360.35
        movslq    %edx, %rdx                                    #360.10
        imulq     $4, %rdx, %rdx                                #360.10
        addq      %rdx, %rax                                    #360.10
        movl      $1, %edx                                      #360.10
        addl      (%rax), %edx                                  #360.10
        movl      -48(%rbp), %eax                               #360.20
        movslq    %eax, %rax                                    #360.10
        imulq     $204, %rax, %rax                              #360.10
        addq      -32(%rbp), %rax                               #360.10
        movl      $-1, %ecx                                     #360.10
        addl      -48(%rbp), %ecx                               #360.35
        movslq    %ecx, %rcx                                    #360.10
        imulq     $4, %rcx, %rcx                                #360.10
        addq      %rcx, %rax                                    #360.10
        movl      %edx, (%rax)                                  #360.10
        movl      -48(%rbp), %eax                               #361.49
        movslq    %eax, %rax                                    #361.39
        imulq     $4, %rax, %rax                                #361.39
        addq      -40(%rbp), %rax                               #361.39
        movl      $20, %edx                                     #361.8
        addl      -48(%rbp), %edx                               #361.25
        movslq    %edx, %rdx                                    #361.8
        imulq     $204, %rdx, %rdx                              #361.8
        addq      -32(%rbp), %rdx                               #361.8
        movl      -48(%rbp), %ecx                               #361.29
        movslq    %ecx, %rcx                                    #361.8
        imulq     $4, %rcx, %rcx                                #361.8
        addq      %rcx, %rdx                                    #361.8
        movl      (%rax), %eax                                  #361.39
        movl      %eax, (%rdx)                                  #361.8
        movl      $5, IntGlob(%rip)                             #362.8
        leave                                                   #363.1
	.cfi_restore 6
        ret                                                     #363.1
                                # LOE
	.cfi_endproc
# mark_end;
	.type	Proc8,@function
	.size	Proc8,.-Proc8
..LNProc8.9:
	.data
# -- End  Proc8
	.text
.L_2__routine_start_Func1_10:
# -- Begin  Func1
	.text
# mark_begin;

	.globl Func1
# --- Func1()
Func1:
# parameter 1: %edi
# parameter 2: %esi
..B11.1:                        # Preds ..B11.0
                                # Execution count [0.00e+00]
	.cfi_startproc
..___tag_value_Func1.132:
..L133:
                                                        #368.1
        pushq     %rbp                                          #368.1
	.cfi_def_cfa_offset 16
        movq      %rsp, %rbp                                    #368.1
	.cfi_def_cfa 6, 16
	.cfi_offset 6, -16
        subq      $32, %rsp                                     #368.1
        movb      %dil, -24(%rbp)                               #368.1
        movb      %sil, -16(%rbp)                               #368.1
        movsbl    -24(%rbp), %eax                               #372.19
        movb      %al, -32(%rbp)                                #372.8
        movsbl    -32(%rbp), %eax                               #373.19
        movb      %al, -31(%rbp)                                #373.8
        movsbl    -31(%rbp), %eax                               #374.12
        movsbq    %al, %rax                                     #374.12
        movsbl    -16(%rbp), %edx                               #374.24
        movsbq    %dl, %rdx                                     #374.24
        cmpl      %edx, %eax                                    #374.24
        je        ..B11.3       # Prob 50%                      #374.24
                                # LOE rbx rbp rsp r12 r13 r14 r15 rip
..B11.2:                        # Preds ..B11.1
                                # Execution count [0.00e+00]
        movl      $0, %eax                                      #375.23
        leave                                                   #375.23
	.cfi_restore 6
        ret                                                     #375.23
	.cfi_offset 6, -16
                                # LOE
..B11.3:                        # Preds ..B11.1
                                # Execution count [0.00e+00]
        movl      $1, %eax                                      #377.23
        leave                                                   #377.23
	.cfi_restore 6
        ret                                                     #377.23
                                # LOE
	.cfi_endproc
# mark_end;
	.type	Func1,@function
	.size	Func1,.-Func1
..LNFunc1.10:
	.data
# -- End  Func1
	.text
.L_2__routine_start_Func2_11:
# -- Begin  Func2
	.text
# mark_begin;

	.globl Func2
# --- Func2()
Func2:
# parameter 1: %rdi
# parameter 2: %rsi
..B12.1:                        # Preds ..B12.0
                                # Execution count [0.00e+00]
	.cfi_startproc
..___tag_value_Func2.141:
..L142:
                                                        #383.1
        pushq     %rbp                                          #383.1
	.cfi_def_cfa_offset 16
        movq      %rsp, %rbp                                    #383.1
	.cfi_def_cfa 6, 16
	.cfi_offset 6, -16
        subq      $32, %rsp                                     #383.1
        movq      %rdi, -16(%rbp)                               #383.1
        movq      %rsi, -8(%rbp)                                #383.1
        movl      $1, -28(%rbp)                                 #387.8
                                # LOE rbx rbp rsp r12 r13 r14 r15 rip
..B12.2:                        # Preds ..B12.5 ..B12.4 ..B12.1
                                # Execution count [0.00e+00]
        movl      -28(%rbp), %eax                               #388.15
        cmpl      $1, %eax                                      #388.25
        jg        ..B12.6       # Prob 50%                      #388.25
                                # LOE rbx rbp rsp r12 r13 r14 r15 rip
..B12.3:                        # Preds ..B12.2
                                # Execution count [0.00e+00]
        movl      -28(%rbp), %eax                               #389.20
        movslq    %eax, %rax                                    #389.20
        addq      -16(%rbp), %rax                               #389.20
        movsbl    (%rax), %eax                                  #389.20
        movsbq    %al, %rax                                     #389.20
        movl      $1, %edx                                      #389.20
        addl      -28(%rbp), %edx                               #389.20
        movslq    %edx, %rdx                                    #389.20
        addq      -8(%rbp), %rdx                                #389.20
        movsbl    (%rdx), %edx                                  #389.20
        movsbq    %dl, %rdx                                     #389.20
        movl      %eax, %edi                                    #389.20
        movl      %edx, %esi                                    #389.20
        movl      $0, %eax                                      #389.20
..___tag_value_Func2.146:
#       Func1()
        call      Func1                                         #389.20
..___tag_value_Func2.147:
                                # LOE rbx rbp rsp r12 r13 r14 r15 rip eax
..B12.16:                       # Preds ..B12.3
                                # Execution count [0.00e+00]
        movl      %eax, -24(%rbp)                               #389.20
                                # LOE rbx rbp rsp r12 r13 r14 r15 rip
..B12.4:                        # Preds ..B12.16
                                # Execution count [0.00e+00]
        movl      -24(%rbp), %eax                               #389.20
        testl     %eax, %eax                                    #389.67
        jne       ..B12.2       # Prob 50%                      #389.67
                                # LOE rbx rbp rsp r12 r13 r14 r15 rip
..B12.5:                        # Preds ..B12.4
                                # Execution count [0.00e+00]
        movb      $65, -32(%rbp)                                #391.24
        movl      $1, %eax                                      #392.26
        addl      -28(%rbp), %eax                               #392.26
        movl      %eax, -28(%rbp)                               #392.26
        jmp       ..B12.2       # Prob 100%                     #392.26
                                # LOE rbx rbp rsp r12 r13 r14 r15 rip
..B12.6:                        # Preds ..B12.2
                                # Execution count [0.00e+00]
        movsbl    -32(%rbp), %eax                               #394.12
        movsbq    %al, %rax                                     #394.12
        addl      $-87, %eax                                    #394.23
        cmpl      $3, %eax                                      #394.23
        ja        ..B12.8       # Prob 50%                      #394.23
                                # LOE rbx rbp rsp r12 r13 r14 r15 rip
..B12.7:                        # Preds ..B12.6
                                # Execution count [0.00e+00]
        movl      $7, -28(%rbp)                                 #395.16
                                # LOE rbx rbp rsp r12 r13 r14 r15 rip
..B12.8:                        # Preds ..B12.7 ..B12.6
                                # Execution count [0.00e+00]
        movsbl    -32(%rbp), %eax                               #396.12
        movsbq    %al, %rax                                     #396.12
        cmpl      $88, %eax                                     #396.23
        jne       ..B12.10      # Prob 50%                      #396.23
                                # LOE rbx rbp rsp r12 r13 r14 r15 rip
..B12.9:                        # Preds ..B12.8
                                # Execution count [0.00e+00]
        movl      $1, %eax                                      #397.22
        leave                                                   #397.22
	.cfi_restore 6
        ret                                                     #397.22
	.cfi_offset 6, -16
                                # LOE
..B12.10:                       # Preds ..B12.8
                                # Execution count [0.00e+00]
        movq      -16(%rbp), %rax                               #400.20
        movq      -8(%rbp), %rdx                                #400.20
        movq      %rax, %rdi                                    #400.20
        movq      %rdx, %rsi                                    #400.20
        movl      $0, %eax                                      #400.20
..___tag_value_Func2.150:
        call      strcmp                                        #400.20
..___tag_value_Func2.151:
                                # LOE rbx rbp rsp r12 r13 r14 r15 rip eax
..B12.17:                       # Preds ..B12.10
                                # Execution count [0.00e+00]
        movl      %eax, -20(%rbp)                               #400.20
                                # LOE rbx rbp rsp r12 r13 r14 r15 rip
..B12.11:                       # Preds ..B12.17
                                # Execution count [0.00e+00]
        movl      -20(%rbp), %eax                               #400.20
        testl     %eax, %eax                                    #400.49
        jle       ..B12.13      # Prob 50%                      #400.49
                                # LOE rbx rbp rsp r12 r13 r14 r15 rip
..B12.12:                       # Preds ..B12.11
                                # Execution count [0.00e+00]
        movl      $7, %eax                                      #402.24
        addl      -28(%rbp), %eax                               #402.24
        movl      %eax, -28(%rbp)                               #402.24
        movl      $1, %eax                                      #403.31
        leave                                                   #403.31
	.cfi_restore 6
        ret                                                     #403.31
	.cfi_offset 6, -16
                                # LOE
..B12.13:                       # Preds ..B12.11
                                # Execution count [0.00e+00]
        movl      $0, %eax                                      #406.31
        leave                                                   #406.31
	.cfi_restore 6
        ret                                                     #406.31
                                # LOE
	.cfi_endproc
# mark_end;
	.type	Func2,@function
	.size	Func2,.-Func2
..LNFunc2.11:
	.data
# -- End  Func2
	.text
.L_2__routine_start_Func3_12:
# -- Begin  Func3
	.text
# mark_begin;

	.globl Func3
# --- Func3()
Func3:
# parameter 1: %edi
..B13.1:                        # Preds ..B13.0
                                # Execution count [0.00e+00]
	.cfi_startproc
..___tag_value_Func3.156:
..L157:
                                                        #412.1
        pushq     %rbp                                          #412.1
	.cfi_def_cfa_offset 16
        movq      %rsp, %rbp                                    #412.1
	.cfi_def_cfa 6, 16
	.cfi_offset 6, -16
        subq      $16, %rsp                                     #412.1
        movl      %edi, -8(%rbp)                                #412.1
        movl      -8(%rbp), %eax                                #415.18
        movl      %eax, -16(%rbp)                               #415.8
        movl      -16(%rbp), %eax                               #416.12
        cmpl      $2, %eax                                      #416.23
        jne       ..B13.3       # Prob 50%                      #416.23
                                # LOE rbx rbp rsp r12 r13 r14 r15 rip
..B13.2:                        # Preds ..B13.1
                                # Execution count [0.00e+00]
        movl      $1, %eax                                      #416.38
        leave                                                   #416.38
	.cfi_restore 6
        ret                                                     #416.38
	.cfi_offset 6, -16
                                # LOE
..B13.3:                        # Preds ..B13.1
                                # Execution count [0.00e+00]
        movl      $0, %eax                                      #417.15
        leave                                                   #417.15
	.cfi_restore 6
        ret                                                     #417.15
                                # LOE
	.cfi_endproc
# mark_end;
	.type	Func3,@function
	.size	Func3,.-Func3
..LNFunc3.12:
	.data
# -- End  Func3
	.data
	.comm IntGlob,4,4
	.comm BoolGlob,4,4
	.comm Char1Glob,1,1
	.comm Char2Glob,1,1
	.comm Array1Glob,204,32
	.comm Array2Glob,10404,32
	.comm PtrGlb,8,8
	.comm PtrGlbNext,8,8
	.section .note.GNU-stack, ""
# End
